; Function Attrs: mustprogress nounwind uwtable
define dso_local void @_ZN4node6crypto10HKDFConfigC2EOS1_(ptr noundef nonnull align 8 dereferenceable(96) %this, ptr noundef nonnull align 8 dereferenceable(96) %other) unnamed_addr #3 align 2 {
entry:
  store ptr getelementptr inbounds ({ [10 x ptr] }, ptr @_ZTVN4node6crypto10HKDFConfigE, i64 0, i32 0, i64 2), ptr %this, align 8
  %mode = getelementptr inbounds i8, ptr %this, i64 8
  %mode2 = getelementptr inbounds i8, ptr %other, i64 8
  %0 = load i32, ptr %mode2, align 8
  store i32 %0, ptr %mode, align 8
  %length = getelementptr inbounds i8, ptr %this, i64 16
  %length3 = getelementptr inbounds i8, ptr %other, i64 16
  %1 = load i64, ptr %length3, align 8
  store i64 %1, ptr %length, align 8
  %digest = getelementptr inbounds i8, ptr %this, i64 24
  %digest4 = getelementptr inbounds i8, ptr %other, i64 24
  %2 = load ptr, ptr %digest4, align 8
  store ptr %2, ptr %digest, align 8
  %key = getelementptr inbounds i8, ptr %this, i64 32
  %key5 = getelementptr inbounds i8, ptr %other, i64 32
  %3 = load ptr, ptr %key5, align 8
  store ptr %3, ptr %key, align 8
  %_M_refcount.i.i = getelementptr inbounds i8, ptr %this, i64 40
  %_M_refcount3.i.i = getelementptr inbounds i8, ptr %other, i64 40
  %4 = load ptr, ptr %_M_refcount3.i.i, align 8
  store ptr %4, ptr %_M_refcount.i.i, align 8
  %cmp.not.i.i.i = icmp eq ptr %4, null
  br i1 %cmp.not.i.i.i, label %_ZNSt10shared_ptrIN4node6crypto13KeyObjectDataEEC2ERKS3_.exit, label %if.then.i.i.i

if.then.i.i.i:                                    ; preds = %entry
  %_M_use_count.i.i.i.i = getelementptr inbounds i8, ptr %4, i64 8
  %5 = load i8, ptr @__libc_single_threaded, align 1
  %tobool.i.not.i.i.i.i = icmp eq i8 %5, 0
  br i1 %tobool.i.not.i.i.i.i, label %if.else.i.i.i.i.i, label %if.then.i.i.i.i.i

if.then.i.i.i.i.i:                                ; preds = %if.then.i.i.i
  %6 = load i32, ptr %_M_use_count.i.i.i.i, align 4
  %add.i.i.i.i.i = add nsw i32 %6, 1
  store i32 %add.i.i.i.i.i, ptr %_M_use_count.i.i.i.i, align 4
  br label %_ZNSt10shared_ptrIN4node6crypto13KeyObjectDataEEC2ERKS3_.exit

if.else.i.i.i.i.i:                                ; preds = %if.then.i.i.i
  %7 = atomicrmw volatile add ptr %_M_use_count.i.i.i.i, i32 1 acq_rel, align 4
  br label %_ZNSt10shared_ptrIN4node6crypto13KeyObjectDataEEC2ERKS3_.exit

_ZNSt10shared_ptrIN4node6crypto13KeyObjectDataEEC2ERKS3_.exit: ; preds = %entry, %if.then.i.i.i.i.i, %if.else.i.i.i.i.i
  %salt = getelementptr inbounds i8, ptr %this, i64 48
  %salt6 = getelementptr inbounds i8, ptr %other, i64 48
  tail call void @_ZN4node6crypto10ByteSourceC1EOS1_(ptr noundef nonnull align 8 dereferenceable(24) %salt, ptr noundef nonnull align 8 dereferenceable(24) %salt6) #19
  %info = getelementptr inbounds i8, ptr %this, i64 72
  %info7 = getelementptr inbounds i8, ptr %other, i64 72
  tail call void @_ZN4node6crypto10ByteSourceC1EOS1_(ptr noundef nonnull align 8 dereferenceable(24) %info, ptr noundef nonnull align 8 dereferenceable(24) %info7) #19
  ret void
}